; Function Attrs: mustprogress nofree norecurse nosync nounwind willreturn memory(argmem: readwrite) uwtable
define hidden void @_ZN5ceres8internal33DynamicSparseNormalCholeskySolverC2ENS0_12LinearSolver7OptionsE(ptr noundef nonnull align 8 dereferenceable(224) %0, ptr nocapture noundef %1) unnamed_addr #0 align 2 personality ptr @__gxx_personality_v0 {
  %3 = getelementptr inbounds i8, ptr %0, i64 8
  tail call void @llvm.memset.p0.i64(ptr noundef nonnull align 8 dereferenceable(40) %3, i8 0, i64 40, i1 false)
  %4 = getelementptr inbounds i8, ptr %0, i64 56
  store i32 0, ptr %4, align 8
  %5 = getelementptr inbounds i8, ptr %0, i64 64
  store ptr null, ptr %5, align 8
  %6 = getelementptr inbounds i8, ptr %0, i64 72
  store ptr %4, ptr %6, align 8
  %7 = getelementptr inbounds i8, ptr %0, i64 80
  store ptr %4, ptr %7, align 8
  %8 = getelementptr inbounds i8, ptr %0, i64 88
  store i64 0, ptr %8, align 8
  store ptr getelementptr inbounds ({ [7 x ptr] }, ptr @_ZTVN5ceres8internal33DynamicSparseNormalCholeskySolverE, i64 0, i32 0, i64 2), ptr %0, align 8
  %9 = getelementptr inbounds i8, ptr %0, i64 96
  tail call void @llvm.memcpy.p0.p0.i64(ptr noundef nonnull align 8 dereferenceable(60) %9, ptr noundef nonnull align 8 dereferenceable(60) %1, i64 60, i1 false)
  %10 = getelementptr inbounds i8, ptr %0, i64 160
  %11 = getelementptr inbounds i8, ptr %1, i64 64
  %12 = load ptr, ptr %11, align 8
  store ptr %12, ptr %10, align 8
  %13 = getelementptr inbounds i8, ptr %0, i64 168
  %14 = getelementptr inbounds i8, ptr %1, i64 72
  %15 = load ptr, ptr %14, align 8
  store ptr %15, ptr %13, align 8
  %16 = getelementptr inbounds i8, ptr %0, i64 176
  %17 = getelementptr inbounds i8, ptr %1, i64 80
  %18 = load ptr, ptr %17, align 8
  store ptr %18, ptr %16, align 8
  tail call void @llvm.memset.p0.i64(ptr noundef nonnull align 8 dereferenceable(24) %11, i8 0, i64 24, i1 false)
  %19 = getelementptr inbounds i8, ptr %0, i64 184
  %20 = getelementptr inbounds i8, ptr %1, i64 88
  tail call void @llvm.memcpy.p0.p0.i64(ptr noundef nonnull align 8 dereferenceable(40) %19, ptr noundef nonnull align 8 dereferenceable(40) %20, i64 40, i1 false)
  ret void
}